target datalayout = "e-m:e-p270:32:32-p271:32:32-p272:64:64-i64:64-i128:128-f80:128-n8:16:32:64-S128"
target triple = "x86_64-pc-linux-gnu"

%struct.Mio_LibraryStruct_t_ = type { ptr, i32, ptr, ptr, ptr, ptr, ptr, ptr, ptr, ptr, ptr, ptr, ptr, ptr, ptr, ptr, i32, i32, i32, ptr, ptr, ptr, i32, ptr, ptr, ptr, ptr, [3 x ptr], [3 x ptr] }
%struct.Mio_GateStruct_t_ = type { ptr, double, ptr, ptr, ptr, ptr, ptr, ptr, i32, i32, i32, i32, double, ptr, ptr, %union.anon, i32 }
%union.anon = type { i64 }

; Function Attrs: nounwind uwtable
define ptr @Mio_GateReadNext(ptr noundef %0) #0 {
  %2 = alloca ptr, align 8
  store ptr %0, ptr %2, align 8, !tbaa !28
  %3 = load ptr, ptr %2, align 8, !tbaa !28
  %4 = getelementptr inbounds nuw %struct.Mio_GateStruct_t_, ptr %3, i32 0, i32 6
  %5 = load ptr, ptr %4, align 8, !tbaa !50
  ret ptr %5
}

; Function Attrs: nounwind uwtable
define ptr @Mio_GateReadName(ptr noundef %0) #0 {
  %2 = alloca ptr, align 8
  store ptr %0, ptr %2, align 8, !tbaa !28
  %3 = load ptr, ptr %2, align 8, !tbaa !28
  %4 = getelementptr inbounds nuw %struct.Mio_GateStruct_t_, ptr %3, i32 0, i32 0
  %5 = load ptr, ptr %4, align 8, !tbaa !49
  ret ptr %5
}

; Function Attrs: nounwind uwtable
define ptr @Mio_LibraryReadGates(ptr noundef %0) #0 {
  %2 = alloca ptr, align 8
  store ptr %0, ptr %2, align 8, !tbaa !3
  %3 = load ptr, ptr %2, align 8, !tbaa !3
  %4 = getelementptr inbounds nuw %struct.Mio_LibraryStruct_t_, ptr %3, i32 0, i32 4
  %5 = load ptr, ptr %4, align 8, !tbaa !24
  ret ptr %5
}

; Function Attrs: nounwind uwtable
define i32 @Mio_LibraryReadGateNameMax(ptr noundef %0) #0 {
  %2 = alloca ptr, align 8
  %3 = alloca ptr, align 8
  %4 = alloca i32, align 4
  %5 = alloca i32, align 4
  store ptr %0, ptr %2, align 8, !tbaa !3
  call void @llvm.lifetime.start.p0(i64 8, ptr %3) #6
  call void @llvm.lifetime.start.p0(i64 4, ptr %4) #6
  store i32 0, ptr %4, align 4, !tbaa !26
  call void @llvm.lifetime.start.p0(i64 4, ptr %5) #6
  %6 = load ptr, ptr %2, align 8, !tbaa !3
  %7 = call ptr @Mio_LibraryReadGates(ptr noundef %6)
  store ptr %7, ptr %3, align 8, !tbaa !28
  br label %8

8:                                                ; preds = %22, %1
  %9 = load ptr, ptr %3, align 8, !tbaa !28
  %10 = icmp ne ptr %9, null
  br i1 %10, label %11, label %25

11:                                               ; preds = %8
  %12 = load ptr, ptr %3, align 8, !tbaa !28
  %13 = call ptr @Mio_GateReadName(ptr noundef %12)
  %14 = call i64 @strlen(ptr noundef %13) #7
  %15 = trunc i64 %14 to i32
  store i32 %15, ptr %5, align 4, !tbaa !26
  %16 = load i32, ptr %4, align 4, !tbaa !26
  %17 = load i32, ptr %5, align 4, !tbaa !26
  %18 = icmp slt i32 %16, %17
  br i1 %18, label %19, label %21

19:                                               ; preds = %11
  %20 = load i32, ptr %5, align 4, !tbaa !26
  store i32 %20, ptr %4, align 4, !tbaa !26
  br label %21

21:                                               ; preds = %19, %11
  br label %22

22:                                               ; preds = %21
  %23 = load ptr, ptr %3, align 8, !tbaa !28
  %24 = call ptr @Mio_GateReadNext(ptr noundef %23)
  store ptr %24, ptr %3, align 8, !tbaa !28
  br label %8, !llvm.loop !47

25:                                               ; preds = %8
  %26 = load i32, ptr %4, align 4, !tbaa !26
  call void @llvm.lifetime.end.p0(i64 4, ptr %5) #6
  call void @llvm.lifetime.end.p0(i64 4, ptr %4) #6
  call void @llvm.lifetime.end.p0(i64 8, ptr %3) #6
  ret i32 %26
}