; Function Attrs: nofree nounwind memory(read, inaccessiblemem: none) uwtable
define range(i32 0, -2147483648) i32 @Mio_LibraryReadGateNameMax(ptr noundef readonly captures(none) %0) local_unnamed_addr #4 {
  %2 = getelementptr inbounds nuw i8, ptr %0, i64 32
  %.09 = load ptr, ptr %2, align 8, !tbaa !25
  %.not10 = icmp eq ptr %.09, null
  br i1 %.not10, label %._crit_edge, label %.lr.ph

.lr.ph:                                           ; preds = %1, %.lr.ph
  %.012 = phi ptr [ %.0, %.lr.ph ], [ %.09, %1 ]
  %.0711 = phi i32 [ %spec.select, %.lr.ph ], [ 0, %1 ]
  %3 = load ptr, ptr %.012, align 8, !tbaa !44
  %4 = tail call i64 @strlen(ptr noundef nonnull dereferenceable(1) %3) #15
  %5 = trunc i64 %4 to i32
  %spec.select = tail call i32 @llvm.smax.i32(i32 %.0711, i32 %5)
  %6 = getelementptr inbounds nuw i8, ptr %.012, i64 48
  %.0 = load ptr, ptr %6, align 8, !tbaa !25
  %.not = icmp eq ptr %.0, null
  br i1 %.not, label %._crit_edge, label %.lr.ph, !llvm.loop !45

._crit_edge:                                      ; preds = %.lr.ph, %1
  %.07.lcssa = phi i32 [ 0, %1 ], [ %spec.select, %.lr.ph ]
  ret i32 %.07.lcssa
}